target datalayout = "e-m:e-p270:32:32-p271:32:32-p272:64:64-i64:64-i128:128-f80:128-n8:16:32:64-S128"
target triple = "x86_64-pc-linux-gnu"

%class.ExpertPacketItem = type { ptr, i32, i32, i32, i32, %class.QByteArray, %class.QByteArray, %class.QByteArray, %class.QList, ptr, %class.QHash }
%class.QByteArray = type { %struct.QArrayDataPointer }
%struct.QArrayDataPointer = type { ptr, ptr, i64 }
%class.QList = type { %struct.QArrayDataPointer.0 }
%struct.QArrayDataPointer.0 = type { ptr, ptr, i64 }
%class.QHash = type { ptr }

; Function Attrs: mustprogress nounwind null_pointer_is_valid sspstrong uwtable
define linkonce_odr noundef ptr @_ZN17QArrayDataPointerIP16ExpertPacketItemE4dataEv(ptr noundef align 8 dereferenceable_or_null(24) %0) #3 comdat align 2 {
  %2 = alloca ptr, align 8
  store ptr %0, ptr %2, align 8
  %3 = load ptr, ptr %2, align 8
  %4 = getelementptr inbounds nuw %struct.QArrayDataPointer.0, ptr %3, i32 0, i32 1
  %5 = load ptr, ptr %4, align 8
  ret ptr %5
}

; Function Attrs: mustprogress nounwind null_pointer_is_valid sspstrong uwtable
define linkonce_odr noundef ptr @_ZN17QArrayDataPointerIP16ExpertPacketItemE3endEv(ptr noundef align 8 dereferenceable_or_null(24) %0) #3 comdat align 2 {
  %2 = alloca ptr, align 8
  store ptr %0, ptr %2, align 8
  %3 = load ptr, ptr %2, align 8
  %4 = call noundef ptr @_ZN17QArrayDataPointerIP16ExpertPacketItemE4dataEv(ptr noundef align 8 dereferenceable_or_null(24) %3) #10
  %5 = getelementptr inbounds nuw %struct.QArrayDataPointer.0, ptr %3, i32 0, i32 2
  %6 = load i64, ptr %5, align 8
  %7 = getelementptr ptr, ptr %4, i64 %6
  ret ptr %7
}

; Function Attrs: mustprogress nounwind null_pointer_is_valid sspstrong uwtable
define linkonce_odr noundef ptr @_ZN17QArrayDataPointerIP16ExpertPacketItemEptEv(ptr noundef align 8 dereferenceable_or_null(24) %0) #3 comdat align 2 {
  %2 = alloca ptr, align 8
  store ptr %0, ptr %2, align 8
  %3 = load ptr, ptr %2, align 8
  ret ptr %3
}

; Function Attrs: inlinehint mustprogress null_pointer_is_valid sspstrong uwtable
define linkonce_odr noundef align 8 dereferenceable(8) ptr @_ZN5QListIP16ExpertPacketItemE11emplaceBackIJRS1_EEES4_DpOT_(ptr noundef align 8 dereferenceable_or_null(24) %0, ptr noundef align 8 dereferenceable(8) %1) #8 comdat align 2 {
  %3 = alloca ptr, align 8
  %4 = alloca ptr, align 8
  store ptr %0, ptr %3, align 8
  store ptr %1, ptr %4, align 8
  %5 = load ptr, ptr %3, align 8
  %6 = getelementptr inbounds nuw %class.QList, ptr %5, i32 0, i32 0
  %7 = call noundef ptr @_ZN17QArrayDataPointerIP16ExpertPacketItemEptEv(ptr noundef align 8 dereferenceable_or_null(24) %6) #10
  %8 = getelementptr inbounds nuw %class.QList, ptr %5, i32 0, i32 0
  %9 = call noundef ptr @_ZN17QArrayDataPointerIP16ExpertPacketItemEptEv(ptr noundef align 8 dereferenceable_or_null(24) %8) #10
  %10 = getelementptr inbounds nuw %struct.QArrayDataPointer.0, ptr %9, i32 0, i32 2
  %11 = load i64, ptr %10, align 8
  %12 = load ptr, ptr %4, align 8
  call void @_ZN9QtPrivate12QPodArrayOpsIP16ExpertPacketItemE7emplaceIJRS2_EEEvxDpOT_(ptr noundef align 8 dereferenceable_or_null(24) %7, i64 noundef %11, ptr noundef align 8 dereferenceable(8) %12)
  %13 = getelementptr inbounds nuw %class.QList, ptr %5, i32 0, i32 0
  %14 = call noundef ptr @_ZN17QArrayDataPointerIP16ExpertPacketItemE3endEv(ptr noundef align 8 dereferenceable_or_null(24) %13) #10
  %15 = getelementptr ptr, ptr %14, i64 -1
  ret ptr %15
}

; Function Attrs: mustprogress null_pointer_is_valid sspstrong uwtable
define linkonce_odr void @_ZN5QListIP16ExpertPacketItemE6appendES1_(ptr noundef align 8 dereferenceable_or_null(24) %0, ptr noundef %1) #0 comdat align 2 {
  %3 = alloca ptr, align 8
  %4 = alloca ptr, align 8
  store ptr %0, ptr %3, align 8
  store ptr %1, ptr %4, align 8
  %5 = load ptr, ptr %3, align 8
  %6 = call noundef align 8 dereferenceable(8) ptr @_ZN5QListIP16ExpertPacketItemE11emplaceBackIJRS1_EEES4_DpOT_(ptr noundef align 8 dereferenceable_or_null(24) %5, ptr noundef align 8 dereferenceable(8) %4)
  ret void
}

; Function Attrs: mustprogress null_pointer_is_valid sspstrong uwtable
define void @_ZN16ExpertPacketItem11appendChildEPS_7QString(ptr noundef align 8 dereferenceable_or_null(136) %0, ptr noundef %1, ptr noundef %2) #0 align 2 {
  %4 = alloca ptr, align 8
  %5 = alloca ptr, align 8
  %6 = alloca ptr, align 8
  store ptr %0, ptr %4, align 8
  store ptr %1, ptr %5, align 8
  store ptr %2, ptr %6, align 8
  %7 = load ptr, ptr %4, align 8
  %8 = getelementptr inbounds nuw %class.ExpertPacketItem, ptr %7, i32 0, i32 8
  %9 = load ptr, ptr %5, align 8
  call void @_ZN5QListIP16ExpertPacketItemE6appendES1_(ptr noundef align 8 dereferenceable_or_null(24) %8, ptr noundef %9)
  %10 = load ptr, ptr %5, align 8
  %11 = getelementptr inbounds nuw %class.ExpertPacketItem, ptr %7, i32 0, i32 10
  %12 = call noundef align 8 dereferenceable(8) ptr @_ZN5QHashI7QStringP16ExpertPacketItemEixERKS0_(ptr noundef align 8 dereferenceable_or_null(8) %11, ptr noundef align 8 dereferenceable(24) %2)
  store ptr %10, ptr %12, align 8
  ret void
}