; Function Attrs: mustprogress null_pointer_is_valid sspstrong uwtable
define void @_ZN16ExpertPacketItem11appendChildEPS_7QString(ptr noundef align 8 dereferenceable_or_null(136) %0, ptr noundef %1, ptr noundef %2) local_unnamed_addr #0 align 2 {
  %4 = alloca ptr, align 8
  %5 = getelementptr inbounds nuw i8, ptr %0, i64 96
  call void @llvm.lifetime.start.p0(i64 8, ptr nonnull %4)
  store ptr %1, ptr %4, align 8
  %6 = getelementptr inbounds nuw i8, ptr %0, i64 112
  %7 = load i64, ptr %6, align 8
  call void @_ZN9QtPrivate12QPodArrayOpsIP16ExpertPacketItemE7emplaceIJRS2_EEEvxDpOT_(ptr noundef nonnull align 8 dereferenceable_or_null(24) %5, i64 noundef %7, ptr noundef nonnull align 8 dereferenceable(8) %4)
  call void @llvm.lifetime.end.p0(i64 8, ptr nonnull %4)
  %8 = getelementptr inbounds nuw i8, ptr %0, i64 128
  %9 = call noundef align 8 dereferenceable(8) ptr @_ZN5QHashI7QStringP16ExpertPacketItemEixERKS0_(ptr noundef nonnull align 8 dereferenceable_or_null(8) %8, ptr noundef align 8 dereferenceable(24) %2)
  store ptr %1, ptr %9, align 8
  ret void
}